target datalayout = "e-m:e-p270:32:32-p271:32:32-p272:64:64-i64:64-i128:128-f80:128-n8:16:32:64-S128"
target triple = "x86_64-pc-linux-gnu"

%"class.icu_77::MaybeStackArray" = type <{ ptr, i32, i8, [40 x i8], [3 x i8] }>
%"class.icu_77::CharString" = type { %"class.icu_77::MaybeStackArray", i32, [4 x i8] }

; Function Attrs: mustprogress nounwind uwtable
define weak_odr noundef nonnull align 1 dereferenceable(1) ptr @_ZNK6icu_7715MaybeStackArrayIcLi40EEixEl(ptr noundef nonnull align 8 dereferenceable(53) %0, i64 noundef %1) #0 comdat align 2 {
  %3 = alloca ptr, align 8
  %4 = alloca i64, align 8
  store ptr %0, ptr %3, align 8, !tbaa !3
  store i64 %1, ptr %4, align 8, !tbaa !18
  %5 = load ptr, ptr %3, align 8
  %6 = getelementptr inbounds nuw %"class.icu_77::MaybeStackArray", ptr %5, i32 0, i32 0
  %7 = load ptr, ptr %6, align 8, !tbaa !8
  %8 = load i64, ptr %4, align 8, !tbaa !18
  %9 = getelementptr inbounds i8, ptr %7, i64 %8
  ret ptr %9
}

; Function Attrs: mustprogress nounwind uwtable
define noundef i32 @_ZNK6icu_7710CharString11lastIndexOfEc(ptr noundef nonnull align 8 dereferenceable(60) %0, i8 noundef signext %1) #0 align 2 {
  %3 = alloca i32, align 4
  %4 = alloca ptr, align 8
  %5 = alloca i8, align 1
  %6 = alloca i32, align 4
  %7 = alloca i32, align 4
  store ptr %0, ptr %4, align 8, !tbaa !23
  store i8 %1, ptr %5, align 1, !tbaa !27
  %8 = load ptr, ptr %4, align 8
  call void @llvm.lifetime.start.p0(i64 4, ptr %6) #11
  %9 = getelementptr inbounds nuw %"class.icu_77::CharString", ptr %8, i32 0, i32 1
  %10 = load i32, ptr %9, align 8, !tbaa !25
  store i32 %10, ptr %6, align 4, !tbaa !14
  br label %11

11:                                               ; preds = %28, %2
  %12 = load i32, ptr %6, align 4, !tbaa !14
  %13 = icmp sgt i32 %12, 0
  br i1 %13, label %15, label %14

14:                                               ; preds = %11
  store i32 2, ptr %7, align 4
  br label %29

15:                                               ; preds = %11
  %16 = getelementptr inbounds nuw %"class.icu_77::CharString", ptr %8, i32 0, i32 0
  %17 = load i32, ptr %6, align 4, !tbaa !14
  %18 = add nsw i32 %17, -1
  store i32 %18, ptr %6, align 4, !tbaa !14
  %19 = sext i32 %18 to i64
  %20 = call noundef nonnull align 1 dereferenceable(1) ptr @_ZNK6icu_7715MaybeStackArrayIcLi40EEixEl(ptr noundef nonnull align 8 dereferenceable(53) %16, i64 noundef %19)
  %21 = load i8, ptr %20, align 1, !tbaa !27
  %22 = sext i8 %21 to i32
  %23 = load i8, ptr %5, align 1, !tbaa !27
  %24 = sext i8 %23 to i32
  %25 = icmp eq i32 %22, %24
  br i1 %25, label %26, label %28

26:                                               ; preds = %15
  %27 = load i32, ptr %6, align 4, !tbaa !14
  store i32 %27, ptr %3, align 4
  store i32 1, ptr %7, align 4
  br label %29

28:                                               ; preds = %15
  br label %11, !llvm.loop !28

29:                                               ; preds = %26, %14
  call void @llvm.lifetime.end.p0(i64 4, ptr %6) #11
  %30 = load i32, ptr %7, align 4
  switch i32 %30, label %34 [
    i32 2, label %31
    i32 1, label %32
  ]

31:                                               ; preds = %29
  store i32 -1, ptr %3, align 4
  br label %32

32:                                               ; preds = %31, %29
  %33 = load i32, ptr %3, align 4
  ret i32 %33

34:                                               ; preds = %29
  unreachable
}