; Function Attrs: mustprogress nofree norecurse nosync nounwind willreturn memory(read, inaccessiblemem: none) uwtable
define noundef i32 @_ZNK6icu_7710CharString11lastIndexOfEc(ptr noundef nonnull readonly align 8 captures(none) dereferenceable(60) %0, i8 noundef signext %1) local_unnamed_addr #10 align 2 {
  %3 = getelementptr inbounds nuw i8, ptr %0, i64 56
  %4 = load i32, ptr %3, align 8, !tbaa !15
  %5 = load ptr, ptr %0, align 8
  %6 = zext i32 %4 to i64
  br label %7

7:                                                ; preds = %10, %2
  %indvars.iv = phi i64 [ %indvars.iv.next, %10 ], [ %6, %2 ]
  %8 = trunc nuw i64 %indvars.iv to i32
  %9 = icmp slt i32 %8, 1
  br i1 %9, label %.split.loop.exit9, label %10

10:                                               ; preds = %7
  %indvars.iv.next = add nsw i64 %indvars.iv, -1
  %11 = and i64 %indvars.iv.next, 4294967295
  %12 = getelementptr inbounds nuw i8, ptr %5, i64 %11
  %13 = load i8, ptr %12, align 1, !tbaa !17
  %14 = icmp eq i8 %13, %1
  br i1 %14, label %.split.loop.exit, label %7, !llvm.loop !18

.split.loop.exit:                                 ; preds = %10
  %indvars.le = trunc i64 %indvars.iv.next to i32
  br label %.split.loop.exit9

.split.loop.exit9:                                ; preds = %7, %.split.loop.exit
  %spec.select = phi i32 [ %indvars.le, %.split.loop.exit ], [ -1, %7 ]
  ret i32 %spec.select
}